; ModuleID = 'source-C-CXX/57/262.c'
source_filename = "source-C-CXX/57/262.c"
target datalayout = "e-m:e-p270:32:32-p271:32:32-p272:64:64-i64:64-f80:128-n8:16:32:64-S128"
target triple = "x86_64-pc-linux-gnu"

%struct._IO_FILE = type { i32, i8*, i8*, i8*, i8*, i8*, i8*, i8*, i8*, i8*, i8*, i8*, %struct._IO_marker*, %struct._IO_FILE*, i32, i32, i64, i16, i8, [1 x i8], i8*, i64, %struct._IO_codecvt*, %struct._IO_wide_data*, %struct._IO_FILE*, i8*, i64, i32, [20 x i8] }
%struct._IO_marker = type opaque
%struct._IO_codecvt = type opaque
%struct._IO_wide_data = type opaque

@.str = private unnamed_addr constant [3 x i8] c"%d\00", align 1
@stdin = external local_unnamed_addr global %struct._IO_FILE*, align 8
@str.4 = private unnamed_addr constant [2 x i8] c"0\00", align 1
@str.5 = private unnamed_addr constant [2 x i8] c"1\00", align 1

; Function Attrs: nounwind sspstrong uwtable
define dso_local i32 @main() local_unnamed_addr #0 {
  %1 = alloca i32, align 4
  %2 = alloca [100 x i8], align 16
  %3 = bitcast i32* %1 to i8*
  call void @llvm.lifetime.start.p0i8(i64 4, i8* nonnull %3) #5
  %4 = call i32 (i8*, ...) @__isoc99_scanf(i8* getelementptr inbounds ([3 x i8], [3 x i8]* @.str, i64 0, i64 0), i32* nonnull %1)
  %5 = load %struct._IO_FILE*, %struct._IO_FILE** @stdin, align 8, !tbaa !5
  %6 = call i32 @getc(%struct._IO_FILE* %5) #5
  %7 = getelementptr inbounds [100 x i8], [100 x i8]* %2, i64 0, i64 0
  call void @llvm.lifetime.start.p0i8(i64 100, i8* nonnull %7) #5
  %8 = getelementptr inbounds [100 x i8], [100 x i8]* %2, i64 0, i64 1
  %9 = load i32, i32* %1, align 4, !tbaa !9
  %10 = icmp sgt i32 %9, 0
  br i1 %10, label %11, label %48

11:                                               ; preds = %0, %44
  %12 = phi i32 [ %45, %44 ], [ 0, %0 ]
  %13 = call i32 (i8*, ...) bitcast (i32 (...)* @gets to i32 (i8*, ...)*)(i8* nonnull %7) #5
  %14 = load i8, i8* %7, align 16, !tbaa !11
  %15 = icmp eq i8 %14, 95
  %16 = add i8 %14, -65
  %17 = icmp ult i8 %16, 58
  %18 = or i1 %15, %17
  br i1 %18, label %19, label %41

19:                                               ; preds = %11
  %20 = load i8, i8* %8, align 1, !tbaa !11
  %21 = icmp eq i8 %20, 0
  br i1 %21, label %41, label %22

22:                                               ; preds = %19, %31
  %23 = phi i8 [ %34, %31 ], [ %20, %19 ]
  %24 = phi i64 [ %32, %31 ], [ 1, %19 ]
  switch i8 %23, label %25 [
    i8 0, label %41
    i8 95, label %31
  ]

25:                                               ; preds = %22
  %26 = add i8 %23, -65
  %27 = icmp ult i8 %26, 58
  %28 = add i8 %23, -48
  %29 = icmp ult i8 %28, 10
  %30 = or i1 %27, %29
  br i1 %30, label %31, label %35

31:                                               ; preds = %25, %22
  %32 = add nuw i64 %24, 1
  %33 = getelementptr inbounds [100 x i8], [100 x i8]* %2, i64 0, i64 %32
  %34 = load i8, i8* %33, align 1, !tbaa !11
  br label %22, !llvm.loop !12

35:                                               ; preds = %25
  %36 = and i64 %24, 4294967295
  %37 = getelementptr inbounds [100 x i8], [100 x i8]* %2, i64 0, i64 %36
  %38 = call i32 @puts(i8* nonnull dereferenceable(1) getelementptr inbounds ([2 x i8], [2 x i8]* @str.4, i64 0, i64 0))
  %39 = load i8, i8* %37, align 1, !tbaa !11
  %40 = icmp eq i8 %39, 0
  br i1 %40, label %41, label %44

41:                                               ; preds = %22, %35, %11, %19
  %42 = phi i8* [ getelementptr inbounds ([2 x i8], [2 x i8]* @str.5, i64 0, i64 0), %19 ], [ getelementptr inbounds ([2 x i8], [2 x i8]* @str.4, i64 0, i64 0), %11 ], [ getelementptr inbounds ([2 x i8], [2 x i8]* @str.5, i64 0, i64 0), %35 ], [ getelementptr inbounds ([2 x i8], [2 x i8]* @str.5, i64 0, i64 0), %22 ]
  %43 = call i32 @puts(i8* nonnull dereferenceable(1) %42)
  br label %44

44:                                               ; preds = %41, %35
  %45 = add nuw nsw i32 %12, 1
  %46 = load i32, i32* %1, align 4, !tbaa !9
  %47 = icmp slt i32 %45, %46
  br i1 %47, label %11, label %48, !llvm.loop !14

48:                                               ; preds = %44, %0
  call void @llvm.lifetime.end.p0i8(i64 100, i8* nonnull %7) #5
  call void @llvm.lifetime.end.p0i8(i64 4, i8* nonnull %3) #5
  ret i32 0
}

; Function Attrs: argmemonly mustprogress nofree nosync nounwind willreturn
declare void @llvm.lifetime.start.p0i8(i64 immarg, i8* nocapture) #1

; Function Attrs: nofree nounwind
declare noundef i32 @__isoc99_scanf(i8* nocapture noundef readonly, ...) local_unnamed_addr #2

declare i32 @gets(...) local_unnamed_addr #3

; Function Attrs: argmemonly mustprogress nofree nosync nounwind willreturn
declare void @llvm.lifetime.end.p0i8(i64 immarg, i8* nocapture) #1

; Function Attrs: nofree nounwind
declare noundef i32 @getc(%struct._IO_FILE* nocapture noundef) local_unnamed_addr #2

; Function Attrs: nofree nounwind
declare noundef i32 @puts(i8* nocapture noundef readonly) local_unnamed_addr #4


!llvm.module.flags = !{!0, !1, !2, !3}
!llvm.ident = !{!4}

!0 = !{i32 1, !"wchar_size", i32 4}
!1 = !{i32 7, !"PIC Level", i32 2}
!2 = !{i32 7, !"PIE Level", i32 2}
!3 = !{i32 7, !"uwtable", i32 1}
!4 = !{!"clang version 13.0.0"}
!5 = !{!6, !6, i64 0}
!6 = !{!"any pointer", !7, i64 0}
!7 = !{!"omnipotent char", !8, i64 0}
!8 = !{!"Simple C/C++ TBAA"}
!9 = !{!10, !10, i64 0}
!10 = !{!"int", !7, i64 0}
!11 = !{!7, !7, i64 0}
!12 = distinct !{!12, !13}
!13 = !{!"llvm.loop.mustprogress"}
!14 = distinct !{!14, !13}
